target datalayout = "e-m:e-p270:32:32-p271:32:32-p272:64:64-i64:64-i128:128-f80:128-n8:16:32:64-S128"
target triple = "x86_64-pc-linux-gnu"

; Function Attrs: nounwind uwtable
define internal i32 @mxf_read_strong_ref_array(ptr noundef %0, ptr noundef %1, ptr noundef %2) #0 {
  %4 = alloca i32, align 4
  %5 = alloca ptr, align 8
  %6 = alloca ptr, align 8
  %7 = alloca ptr, align 8
  %8 = alloca i64, align 8
  %9 = alloca i32, align 4
  %10 = alloca i32, align 4
  store ptr %0, ptr %5, align 8, !tbaa !138
  store ptr %1, ptr %6, align 8, !tbaa !327
  store ptr %2, ptr %7, align 8, !tbaa !282
  call void @llvm.lifetime.start.p0(i64 8, ptr %8) #13
  call void @llvm.lifetime.start.p0(i64 4, ptr %9) #13
  %11 = load ptr, ptr %5, align 8, !tbaa !138
  %12 = call i32 @avio_rb32(ptr noundef %11)
  store i32 %12, ptr %9, align 4, !tbaa !47
  %13 = load i32, ptr %9, align 4, !tbaa !47
  %14 = zext i32 %13 to i64
  %15 = icmp ugt i64 %14, 134217727
  br i1 %15, label %16, label %17

16:                                               ; preds = %3
  store i32 -1163346256, ptr %4, align 4
  store i32 1, ptr %10, align 4
  br label %71

17:                                               ; preds = %3
  %18 = load i32, ptr %9, align 4, !tbaa !47
  %19 = load ptr, ptr %7, align 8, !tbaa !282
  store i32 %18, ptr %19, align 4, !tbaa !47
  %20 = load ptr, ptr %6, align 8, !tbaa !327
  %21 = load ptr, ptr %20, align 8, !tbaa !13
  call void @av_free(ptr noundef %21)
  %22 = load ptr, ptr %7, align 8, !tbaa !282
  %23 = load i32, ptr %22, align 4, !tbaa !47
  %24 = sext i32 %23 to i64
  %25 = call ptr @av_malloc_array(i64 noundef %24, i64 noundef 16)
  %26 = load ptr, ptr %6, align 8, !tbaa !327
  store ptr %25, ptr %26, align 8, !tbaa !13
  %27 = load ptr, ptr %6, align 8, !tbaa !327
  %28 = load ptr, ptr %27, align 8, !tbaa !13
  %29 = icmp ne ptr %28, null
  br i1 %29, label %32, label %30

30:                                               ; preds = %17
  %31 = load ptr, ptr %7, align 8, !tbaa !282
  store i32 0, ptr %31, align 4, !tbaa !47
  store i32 -12, ptr %4, align 4
  store i32 1, ptr %10, align 4
  br label %71

32:                                               ; preds = %17
  %33 = load ptr, ptr %5, align 8, !tbaa !138
  %34 = call i64 @avio_skip(ptr noundef %33, i64 noundef 4)
  %35 = load ptr, ptr %5, align 8, !tbaa !138
  %36 = load ptr, ptr %6, align 8, !tbaa !327
  %37 = load ptr, ptr %36, align 8, !tbaa !13
  %38 = load ptr, ptr %7, align 8, !tbaa !282
  %39 = load i32, ptr %38, align 4, !tbaa !47
  %40 = sext i32 %39 to i64
  %41 = mul i64 %40, 16
  %42 = trunc i64 %41 to i32
  %43 = call i32 @avio_read(ptr noundef %35, ptr noundef %37, i32 noundef %42)
  %44 = sext i32 %43 to i64
  store i64 %44, ptr %8, align 8, !tbaa !37
  %45 = load i64, ptr %8, align 8, !tbaa !37
  %46 = load ptr, ptr %7, align 8, !tbaa !282
  %47 = load i32, ptr %46, align 4, !tbaa !47
  %48 = sext i32 %47 to i64
  %49 = mul i64 %48, 16
  %50 = icmp ne i64 %45, %49
  br i1 %50, label %51, label %70

51:                                               ; preds = %32
  %52 = load i64, ptr %8, align 8, !tbaa !37
  %53 = icmp slt i64 %52, 0
  br i1 %53, label %54, label %55

54:                                               ; preds = %51
  br label %58

55:                                               ; preds = %51
  %56 = load i64, ptr %8, align 8, !tbaa !37
  %57 = udiv i64 %56, 16
  br label %58

58:                                               ; preds = %55, %54
  %59 = phi i64 [ 0, %54 ], [ %57, %55 ]
  %60 = trunc i64 %59 to i32
  %61 = load ptr, ptr %7, align 8, !tbaa !282
  store i32 %60, ptr %61, align 4, !tbaa !47
  %62 = load i64, ptr %8, align 8, !tbaa !37
  %63 = icmp slt i64 %62, 0
  br i1 %63, label %64, label %66

64:                                               ; preds = %58
  %65 = load i64, ptr %8, align 8, !tbaa !37
  br label %67

66:                                               ; preds = %58
  br label %67

67:                                               ; preds = %66, %64
  %68 = phi i64 [ %65, %64 ], [ -1094995529, %66 ]
  %69 = trunc i64 %68 to i32
  store i32 %69, ptr %4, align 4
  store i32 1, ptr %10, align 4
  br label %71

70:                                               ; preds = %32
  store i32 0, ptr %4, align 4
  store i32 1, ptr %10, align 4
  br label %71

71:                                               ; preds = %70, %67, %30, %16
  call void @llvm.lifetime.end.p0(i64 4, ptr %9) #13
  call void @llvm.lifetime.end.p0(i64 8, ptr %8) #13
  %72 = load i32, ptr %4, align 4
  ret i32 %72
}