; Function Attrs: nounwind uwtable
define internal fastcc i32 @mxf_read_strong_ref_array(ptr noundef %0, ptr noundef captures(none) %1, ptr noundef captures(none) %2) unnamed_addr #1 {
  %4 = tail call i32 @avio_rb32(ptr noundef %0) #15
  %5 = icmp ugt i32 %4, 134217727
  br i1 %5, label %27, label %6

6:                                                ; preds = %3
  store i32 %4, ptr %2, align 4, !tbaa !142
  %7 = load ptr, ptr %1, align 8, !tbaa !245
  tail call void @av_free(ptr noundef %7) #15
  %8 = load i32, ptr %2, align 4, !tbaa !142
  %9 = sext i32 %8 to i64
  %10 = tail call ptr @av_malloc_array(i64 noundef %9, i64 noundef 16) #15
  store ptr %10, ptr %1, align 8, !tbaa !245
  %.not = icmp eq ptr %10, null
  br i1 %.not, label %11, label %12

11:                                               ; preds = %6
  store i32 0, ptr %2, align 4, !tbaa !142
  br label %27

12:                                               ; preds = %6
  %13 = tail call i64 @avio_skip(ptr noundef %0, i64 noundef 4) #15
  %14 = load ptr, ptr %1, align 8, !tbaa !245
  %15 = load i32, ptr %2, align 4, !tbaa !142
  %16 = shl i32 %15, 4
  %17 = tail call i32 @avio_read(ptr noundef %0, ptr noundef %14, i32 noundef %16) #15
  %18 = sext i32 %17 to i64
  %19 = load i32, ptr %2, align 4, !tbaa !142
  %20 = sext i32 %19 to i64
  %21 = shl nsw i64 %20, 4
  %.not21 = icmp eq i64 %21, %18
  br i1 %.not21, label %27, label %22

22:                                               ; preds = %12
  %23 = icmp slt i32 %17, 0
  %24 = tail call i32 @llvm.smax.i32(i32 %17, i32 0)
  %25 = lshr i32 %24, 4
  store i32 %25, ptr %2, align 4, !tbaa !142
  %26 = select i1 %23, i32 %17, i32 -1094995529
  br label %27

27:                                               ; preds = %12, %3, %22, %11
  %.0 = phi i32 [ %26, %22 ], [ -12, %11 ], [ -1163346256, %3 ], [ 0, %12 ]
  ret i32 %.0
}